; Function Attrs: mustprogress uwtable
define void @_ZN32pxrInternal_v0_24__pxrReserved__23UsdPrimCompositionQuery19GetDirectReferencesERKNS_7UsdPrimE(ptr dead_on_unwind noalias writable sret(%"class.pxrInternal_v0_24__pxrReserved__::UsdPrimCompositionQuery") align 8 %0, ptr noundef nonnull align 8 dereferenceable(32) %1) local_unnamed_addr #0 align 2 {
  %3 = alloca %"struct.pxrInternal_v0_24__pxrReserved__::UsdPrimCompositionQuery::Filter", align 4
  %4 = getelementptr inbounds nuw i8, ptr %3, i64 8
  store i64 0, ptr %4, align 4
  %5 = getelementptr inbounds nuw i8, ptr %3, i64 4
  store i32 1, ptr %5, align 4
  store i32 1, ptr %3, align 4
  call void @_ZN32pxrInternal_v0_24__pxrReserved__23UsdPrimCompositionQueryC1ERKNS_7UsdPrimERKNS0_6FilterE(ptr noundef nonnull align 8 dereferenceable(88) %0, ptr noundef nonnull align 8 dereferenceable(32) %1, ptr noundef nonnull align 4 dereferenceable(16) %3)
  ret void
}